; Function Attrs: nounwind uwtable
define i32 @dlp_get_stripped_ssn_count(ptr noundef %0, i64 noundef %1) local_unnamed_addr #0 {
  %3 = icmp eq ptr %0, null
  %4 = icmp ult i64 %1, 9
  %or.cond.i = or i1 %3, %4
  br i1 %or.cond.i, label %contains_ssn.exit, label %5

5:                                                ; preds = %2
  %6 = getelementptr inbounds i8, ptr %0, i64 %1
  %7 = icmp sgt i64 %1, 0
  br i1 %7, label %.lr.ph.i, label %contains_ssn.exit

.lr.ph.i:                                         ; preds = %5
  %8 = tail call ptr @__ctype_b_loc() #9
  %9 = ptrtoint ptr %0 to i64
  %.neg.i = add i64 %1, %9
  br label %.lr.ph.split.i

.lr.ph.split.i:                                   ; preds = %32, %.lr.ph.i
  %.033.i = phi i32 [ %.1.i, %32 ], [ 0, %.lr.ph.i ]
  %.02432.i = phi ptr [ %33, %32 ], [ %0, %.lr.ph.i ]
  %10 = load ptr, ptr %8, align 8
  %11 = load i8, ptr %.02432.i, align 1
  %12 = zext i8 %11 to i64
  %13 = getelementptr inbounds nuw i16, ptr %10, i64 %12
  %14 = load i16, ptr %13, align 2
  %15 = and i16 %14, 2048
  %.not.i = icmp eq i16 %15, 0
  br i1 %.not.i, label %32, label %16

16:                                               ; preds = %.lr.ph.split.i
  %17 = icmp eq ptr %.02432.i, %0
  br i1 %17, label %25, label %18

18:                                               ; preds = %16
  %19 = getelementptr inbounds i8, ptr %.02432.i, i64 -1
  %20 = load i8, ptr %19, align 1
  %21 = zext i8 %20 to i64
  %22 = getelementptr inbounds nuw i16, ptr %10, i64 %21
  %23 = load i16, ptr %22, align 2
  %24 = and i16 %23, 2048
  %.not28.i = icmp eq i16 %24, 0
  br i1 %.not28.i, label %25, label %32

25:                                               ; preds = %18, %16
  %26 = ptrtoint ptr %.02432.i to i64
  %27 = sub i64 %.neg.i, %26
  %28 = tail call i32 @dlp_is_valid_ssn(ptr noundef nonnull %.02432.i, i64 noundef %27, i32 noundef 1)
  %.not29.i = icmp eq i32 %28, 0
  br i1 %.not29.i, label %32, label %29

29:                                               ; preds = %25
  %30 = add nsw i32 %.033.i, 1
  %31 = getelementptr inbounds nuw i8, ptr %.02432.i, i64 9
  br label %32

32:                                               ; preds = %29, %25, %18, %.lr.ph.split.i
  %.125.i = phi ptr [ %31, %29 ], [ %.02432.i, %25 ], [ %.02432.i, %18 ], [ %.02432.i, %.lr.ph.split.i ]
  %.1.i = phi i32 [ %30, %29 ], [ %.033.i, %25 ], [ %.033.i, %18 ], [ %.033.i, %.lr.ph.split.i ]
  %33 = getelementptr inbounds nuw i8, ptr %.125.i, i64 1
  %34 = icmp ult ptr %33, %6
  br i1 %34, label %.lr.ph.split.i, label %contains_ssn.exit

contains_ssn.exit:                                ; preds = %32, %2, %5
  %.023.i = phi i32 [ 0, %2 ], [ 0, %5 ], [ %.1.i, %32 ]
  ret i32 %.023.i
}